(lp0
(S'cppflags'
p1
ccopy_reg
_reconstructor
p2
(cino.utils
SpaceList
p3
c__builtin__
list
p4
(lp5
S'-mmcu=atmega328p'
p6
aS'-DF_CPU=16000000L'
p7
aS'-DARDUINO=105'
p8
aS'-I/usr/share/arduino/hardware/arduino/cores/arduino'
p9
aS'-ffunction-sections'
p10
aS'-fdata-sections'
p11
aS'-g'
p12
aS'-Os'
p13
aS'-w'
p14
aS'-I/usr/share/arduino/hardware/arduino/variants/standard'
p15
atp16
Rp17
tp18
a(S'cxx'
p19
S'/usr/share/arduino/hardware/tools/avr/bin/avr-g++'
p20
tp21
a(S'arduino_libraries_dir'
p22
S'/usr/share/arduino/libraries'
p23
tp24
a(S'avrdude'
p25
S'/usr/share/arduino/hardware/tools/avrdude'
p26
tp27
a(S'ar'
p28
S'/usr/share/arduino/hardware/tools/avr/bin/avr-ar'
p29
tp30
a(S'names'
p31
(dp32
S'cpp'
p33
S'%s.cpp'
p34
sS'obj'
p35
S'%s.o'
p36
sS'deps'
p37
S'%s.d'
p38
sS'lib'
p39
S'lib%s.a'
p40
stp41
a(S'ldflags'
p42
g2
(g3
g4
(lp43
g6
aS'-Wl,-Os'
p44
aS'-Wl,--gc-sections'
p45
atp46
Rp47
tp48
a(S'arduino_lib_version'
p49
g2
(cino.environment
Version
p50
c__builtin__
tuple
p51
(I1
I0
I5
tp52
tp53
Rp54
tp55
a(S'objcopy'
p56
S'/usr/share/arduino/hardware/tools/avr/bin/avr-objcopy'
p57
tp58
a(S'board_models'
p59
cino.environment
BoardModels
p60
((lp61
(lp62
S'uno'
p63
a(dp64
S'bootloader'
p65
(dp66
S'extended_fuses'
p67
S'0xfd'
p68
sS'high_fuses'
p69
S'0xde'
p70
sS'low_fuses'
p71
S'0xff'
p72
sS'lock_bits'
p73
S'0xcf'
p74
sS'file'
p75
S'optiboot_atmega328.hex'
p76
sS'path'
p77
S'optiboot'
p78
sS'unlock_bits'
p79
S'0xff'
p80
ssS'upload'
p81
(dp82
S'protocol'
p83
S'arduino'
p84
sS'maximum_size'
p85
S'32256'
p86
sS'speed'
p87
S'115200'
p88
ssS'build'
p89
(dp90
S'core'
p91
S'arduino'
p92
sS'mcu'
p93
S'atmega328p'
p94
sS'f_cpu'
p95
S'16000000L'
p96
sS'variant'
p97
S'standard'
p98
ssS'name'
p99
S'Arduino Uno'
p100
saa(lp101
S'atmega328'
p102
a(dp103
S'bootloader'
p104
(dp105
S'extended_fuses'
p106
S'0xfd'
p107
sS'high_fuses'
p108
S'0xDA'
p109
sS'low_fuses'
p110
S'0xFF'
p111
sS'lock_bits'
p112
S'0xcf'
p113
sS'file'
p114
S'ATmegaBOOT_168_atmega328.hex'
p115
sS'path'
p116
S'atmega'
p117
sS'unlock_bits'
p118
S'0xff'
p119
ssS'upload'
p120
(dp121
S'protocol'
p122
S'arduino'
p123
sS'maximum_size'
p124
S'30720'
p125
sS'speed'
p126
S'57600'
p127
ssS'build'
p128
(dp129
S'core'
p130
S'arduino'
p131
sS'mcu'
p132
S'atmega328p'
p133
sS'f_cpu'
p134
S'16000000L'
p135
sS'variant'
p136
S'standard'
p137
ssS'name'
p138
S'Arduino Duemilanove w/ ATmega328'
p139
saa(lp140
S'diecimila'
p141
a(dp142
S'bootloader'
p143
(dp144
S'extended_fuses'
p145
S'0xf8'
p146
sS'high_fuses'
p147
S'0xdd'
p148
sS'low_fuses'
p149
S'0xff'
p150
sS'lock_bits'
p151
S'0xcf'
p152
sS'file'
p153
S'ATmegaBOOT_168_diecimila.hex'
p154
sS'path'
p155
S'atmega'
p156
sS'unlock_bits'
p157
S'0xff'
p158
ssS'upload'
p159
(dp160
S'protocol'
p161
S'arduino'
p162
sS'maximum_size'
p163
S'14336'
p164
sS'speed'
p165
S'19200'
p166
ssS'build'
p167
(dp168
S'core'
p169
S'arduino'
p170
sS'mcu'
p171
S'atmega168'
p172
sS'f_cpu'
p173
S'16000000L'
p174
sS'variant'
p175
S'standard'
p176
ssS'name'
p177
S'Arduino Diecimila or Duemilanove w/ ATmega168'
p178
saa(lp179
S'nano328'
p180
a(dp181
S'bootloader'
p182
(dp183
S'extended_fuses'
p184
S'0xfd'
p185
sS'high_fuses'
p186
S'0xDA'
p187
sS'low_fuses'
p188
S'0xFF'
p189
sS'lock_bits'
p190
S'0xcf'
p191
sS'file'
p192
S'ATmegaBOOT_168_atmega328.hex'
p193
sS'path'
p194
S'atmega'
p195
sS'unlock_bits'
p196
S'0xff'
p197
ssS'upload'
p198
(dp199
S'protocol'
p200
S'arduino'
p201
sS'maximum_size'
p202
S'30720'
p203
sS'speed'
p204
S'57600'
p205
ssS'build'
p206
(dp207
S'core'
p208
S'arduino'
p209
sS'mcu'
p210
S'atmega328p'
p211
sS'f_cpu'
p212
S'16000000L'
p213
sS'variant'
p214
S'eightanaloginputs'
p215
ssS'name'
p216
S'Arduino Nano w/ ATmega328'
p217
saa(lp218
S'nano'
p219
a(dp220
S'bootloader'
p221
(dp222
S'extended_fuses'
p223
S'0xf8'
p224
sS'high_fuses'
p225
S'0xdd'
p226
sS'low_fuses'
p227
S'0xff'
p228
sS'lock_bits'
p229
S'0xcf'
p230
sS'file'
p231
S'ATmegaBOOT_168_diecimila.hex'
p232
sS'path'
p233
S'atmega'
p234
sS'unlock_bits'
p235
S'0xff'
p236
ssS'upload'
p237
(dp238
S'protocol'
p239
S'arduino'
p240
sS'maximum_size'
p241
S'14336'
p242
sS'speed'
p243
S'19200'
p244
ssS'build'
p245
(dp246
S'core'
p247
S'arduino'
p248
sS'mcu'
p249
S'atmega168'
p250
sS'f_cpu'
p251
S'16000000L'
p252
sS'variant'
p253
S'eightanaloginputs'
p254
ssS'name'
p255
S'Arduino Nano w/ ATmega168'
p256
saa(lp257
S'mega2560'
p258
a(dp259
S'bootloader'
p260
(dp261
S'extended_fuses'
p262
S'0xFD'
p263
sS'high_fuses'
p264
S'0xD8'
p265
sS'low_fuses'
p266
S'0xFF'
p267
sS'lock_bits'
p268
S'0xcf'
p269
sS'file'
p270
S'stk500boot_v2_mega2560.hex'
p271
sS'path'
p272
S'stk500v2'
p273
sS'unlock_bits'
p274
S'0xff'
p275
ssS'upload'
p276
(dp277
S'protocol'
p278
S'wiring'
p279
sS'maximum_size'
p280
S'258048'
p281
sS'speed'
p282
S'115200'
p283
ssS'build'
p284
(dp285
S'core'
p286
S'arduino'
p287
sS'mcu'
p288
S'atmega2560'
p289
sS'f_cpu'
p290
S'16000000L'
p291
sS'variant'
p292
S'mega'
p293
ssS'name'
p294
S'Arduino Mega 2560 or Mega ADK'
p295
saa(lp296
S'mega'
p297
a(dp298
S'bootloader'
p299
(dp300
S'extended_fuses'
p301
S'0xF5'
p302
sS'high_fuses'
p303
S'0xDA'
p304
sS'low_fuses'
p305
S'0xFF'
p306
sS'lock_bits'
p307
S'0xcf'
p308
sS'file'
p309
S'ATmegaBOOT_168_atmega1280.hex'
p310
sS'path'
p311
S'atmega'
p312
sS'unlock_bits'
p313
S'0xff'
p314
ssS'upload'
p315
(dp316
S'protocol'
p317
S'arduino'
p318
sS'maximum_size'
p319
S'126976'
p320
sS'speed'
p321
S'57600'
p322
ssS'build'
p323
(dp324
S'core'
p325
S'arduino'
p326
sS'mcu'
p327
S'atmega1280'
p328
sS'f_cpu'
p329
S'16000000L'
p330
sS'variant'
p331
S'mega'
p332
ssS'name'
p333
S'Arduino Mega (ATmega1280)'
p334
saa(lp335
S'leonardo'
p336
a(dp337
S'bootloader'
p338
(dp339
S'extended_fuses'
p340
S'0xcb'
p341
sS'high_fuses'
p342
S'0xd8'
p343
sS'low_fuses'
p344
S'0xff'
p345
sS'lock_bits'
p346
S'0xef'
p347
sS'file'
p348
S'Caterina-Leonardo.hex'
p349
sS'path'
p350
S'caterina'
p351
sS'unlock_bits'
p352
S'0xff'
p353
ssS'upload'
p354
(dp355
S'protocol'
p356
S'avr109'
p357
sS'maximum_size'
p358
S'28672'
p359
sS'speed'
p360
S'57600'
p361
sS'disable_flushing'
p362
S'true'
p363
ssS'build'
p364
(dp365
S'core'
p366
S'arduino'
p367
sS'f_cpu'
p368
S'16000000L'
p369
sS'vid'
p370
S'0x2341'
p371
sS'pid'
p372
S'0x8036'
p373
sS'variant'
p374
S'leonardo'
p375
sS'mcu'
p376
S'atmega32u4'
p377
ssS'name'
p378
S'Arduino Leonardo'
p379
saa(lp380
S'esplora'
p381
a(dp382
S'bootloader'
p383
(dp384
S'extended_fuses'
p385
S'0xcb'
p386
sS'high_fuses'
p387
S'0xd8'
p388
sS'low_fuses'
p389
S'0xff'
p390
sS'lock_bits'
p391
S'0xef'
p392
sS'file'
p393
S'Caterina-Esplora.hex'
p394
sS'path'
p395
S'caterina'
p396
sS'unlock_bits'
p397
S'0xff'
p398
ssS'upload'
p399
(dp400
S'protocol'
p401
S'avr109'
p402
sS'maximum_size'
p403
S'28672'
p404
sS'speed'
p405
S'57600'
p406
sS'disable_flushing'
p407
S'true'
p408
ssS'build'
p409
(dp410
S'core'
p411
S'arduino'
p412
sS'f_cpu'
p413
S'16000000L'
p414
sS'vid'
p415
S'0x2341'
p416
sS'pid'
p417
S'0x803C'
p418
sS'variant'
p419
S'leonardo'
p420
sS'mcu'
p421
S'atmega32u4'
p422
ssS'name'
p423
S'Arduino Esplora'
p424
saa(lp425
S'micro'
p426
a(dp427
S'bootloader'
p428
(dp429
S'extended_fuses'
p430
S'0xcb'
p431
sS'high_fuses'
p432
S'0xd8'
p433
sS'low_fuses'
p434
S'0xff'
p435
sS'lock_bits'
p436
S'0xef'
p437
sS'file'
p438
S'Caterina-Micro.hex'
p439
sS'path'
p440
S'caterina'
p441
sS'unlock_bits'
p442
S'0xff'
p443
ssS'upload'
p444
(dp445
S'protocol'
p446
S'avr109'
p447
sS'maximum_size'
p448
S'28672'
p449
sS'speed'
p450
S'57600'
p451
sS'disable_flushing'
p452
S'true'
p453
ssS'build'
p454
(dp455
S'core'
p456
S'arduino'
p457
sS'f_cpu'
p458
S'16000000L'
p459
sS'vid'
p460
S'0x2341'
p461
sS'pid'
p462
S'0x8037'
p463
sS'variant'
p464
S'micro'
p465
sS'mcu'
p466
S'atmega32u4'
p467
ssS'name'
p468
S'Arduino Micro'
p469
saa(lp470
S'mini328'
p471
a(dp472
S'bootloader'
p473
(dp474
S'extended_fuses'
p475
S'0xfd'
p476
sS'high_fuses'
p477
S'0xd8'
p478
sS'low_fuses'
p479
S'0xff'
p480
sS'lock_bits'
p481
S'0xcf'
p482
sS'file'
p483
S'optiboot_atmega328-Mini.hex'
p484
sS'path'
p485
S'optiboot'
p486
sS'unlock_bits'
p487
S'0xff'
p488
ssS'upload'
p489
(dp490
S'protocol'
p491
S'arduino'
p492
sS'maximum_size'
p493
S'28672'
p494
sS'speed'
p495
S'115200'
p496
ssS'build'
p497
(dp498
S'core'
p499
S'arduino'
p500
sS'mcu'
p501
S'atmega328p'
p502
sS'f_cpu'
p503
S'16000000L'
p504
sS'variant'
p505
S'eightanaloginputs'
p506
ssS'name'
p507
S'Arduino Mini w/ ATmega328'
p508
saa(lp509
S'mini'
p510
a(dp511
S'bootloader'
p512
(dp513
S'extended_fuses'
p514
S'0xf8'
p515
sS'high_fuses'
p516
S'0xdd'
p517
sS'low_fuses'
p518
S'0xff'
p519
sS'lock_bits'
p520
S'0xcf'
p521
sS'file'
p522
S'ATmegaBOOT_168_ng.hex'
p523
sS'path'
p524
S'atmega'
p525
sS'unlock_bits'
p526
S'0xff'
p527
ssS'upload'
p528
(dp529
S'protocol'
p530
S'arduino'
p531
sS'maximum_size'
p532
S'14336'
p533
sS'speed'
p534
S'19200'
p535
ssS'build'
p536
(dp537
S'core'
p538
S'arduino'
p539
sS'mcu'
p540
S'atmega168'
p541
sS'f_cpu'
p542
S'16000000L'
p543
sS'variant'
p544
S'eightanaloginputs'
p545
ssS'name'
p546
S'Arduino Mini w/ ATmega168'
p547
saa(lp548
S'ethernet'
p549
a(dp550
S'bootloader'
p551
(dp552
S'extended_fuses'
p553
S'0xfd'
p554
sS'high_fuses'
p555
S'0xde'
p556
sS'low_fuses'
p557
S'0xff'
p558
sS'lock_bits'
p559
S'0xcf'
p560
sS'file'
p561
S'optiboot_atmega328.hex'
p562
sS'path'
p563
S'optiboot'
p564
sS'unlock_bits'
p565
S'0xff'
p566
ssS'upload'
p567
(dp568
S'protocol'
p569
S'arduino'
p570
sS'maximum_size'
p571
S'32256'
p572
sS'speed'
p573
S'115200'
p574
ssS'build'
p575
(dp576
S'variant'
p577
S'standard'
p578
sS'mcu'
p579
S'atmega328p'
p580
sS'f_cpu'
p581
S'16000000L'
p582
sS'core'
p583
S'arduino'
p584
ssS'name'
p585
S'Arduino Ethernet'
p586
saa(lp587
S'fio'
p588
a(dp589
S'bootloader'
p590
(dp591
S'extended_fuses'
p592
S'0xfd'
p593
sS'high_fuses'
p594
S'0xDA'
p595
sS'low_fuses'
p596
S'0xFF'
p597
sS'lock_bits'
p598
S'0xcf'
p599
sS'file'
p600
S'ATmegaBOOT_168_atmega328_pro_8MHz.hex'
p601
sS'path'
p602
S'arduino:atmega'
p603
sS'unlock_bits'
p604
S'0xff'
p605
ssS'upload'
p606
(dp607
S'protocol'
p608
S'arduino'
p609
sS'maximum_size'
p610
S'30720'
p611
sS'speed'
p612
S'57600'
p613
ssS'build'
p614
(dp615
S'core'
p616
S'arduino'
p617
sS'mcu'
p618
S'atmega328p'
p619
sS'f_cpu'
p620
S'8000000L'
p621
sS'variant'
p622
S'eightanaloginputs'
p623
ssS'name'
p624
S'Arduino Fio'
p625
saa(lp626
S'bt328'
p627
a(dp628
S'bootloader'
p629
(dp630
S'extended_fuses'
p631
S'0xfd'
p632
sS'high_fuses'
p633
S'0xd8'
p634
sS'low_fuses'
p635
S'0xff'
p636
sS'lock_bits'
p637
S'0xcf'
p638
sS'file'
p639
S'ATmegaBOOT_168_atmega328_bt.hex'
p640
sS'path'
p641
S'bt'
p642
sS'unlock_bits'
p643
S'0xff'
p644
ssS'upload'
p645
(dp646
S'protocol'
p647
S'arduino'
p648
sS'maximum_size'
p649
S'28672'
p650
sS'speed'
p651
S'19200'
p652
sS'disable_flushing'
p653
S'true'
p654
ssS'build'
p655
(dp656
S'core'
p657
S'arduino'
p658
sS'mcu'
p659
S'atmega328p'
p660
sS'f_cpu'
p661
S'16000000L'
p662
sS'variant'
p663
S'eightanaloginputs'
p664
ssS'name'
p665
S'Arduino BT w/ ATmega328'
p666
saa(lp667
S'bt'
p668
a(dp669
S'bootloader'
p670
(dp671
S'extended_fuses'
p672
S'0xf8'
p673
sS'high_fuses'
p674
S'0xdd'
p675
sS'low_fuses'
p676
S'0xff'
p677
sS'lock_bits'
p678
S'0xcf'
p679
sS'file'
p680
S'ATmegaBOOT_168.hex'
p681
sS'path'
p682
S'bt'
p683
sS'unlock_bits'
p684
S'0xff'
p685
ssS'upload'
p686
(dp687
S'protocol'
p688
S'arduino'
p689
sS'maximum_size'
p690
S'14336'
p691
sS'speed'
p692
S'19200'
p693
sS'disable_flushing'
p694
S'true'
p695
ssS'build'
p696
(dp697
S'core'
p698
S'arduino'
p699
sS'mcu'
p700
S'atmega168'
p701
sS'f_cpu'
p702
S'16000000L'
p703
sS'variant'
p704
S'eightanaloginputs'
p705
ssS'name'
p706
S'Arduino BT w/ ATmega168'
p707
saa(lp708
S'LilyPadUSB'
p709
a(dp710
S'bootloader'
p711
(dp712
S'extended_fuses'
p713
S'0xce'
p714
sS'high_fuses'
p715
S'0xd8'
p716
sS'low_fuses'
p717
S'0xff'
p718
sS'lock_bits'
p719
S'0xef'
p720
sS'file'
p721
S'Caterina-LilyPadUSB.hex'
p722
sS'path'
p723
S'caterina-LilyPadUSB'
p724
sS'unlock_bits'
p725
S'0xff'
p726
ssS'upload'
p727
(dp728
S'protocol'
p729
S'avr109'
p730
sS'maximum_size'
p731
S'28672'
p732
sS'speed'
p733
S'57600'
p734
sS'disable_flushing'
p735
S'true'
p736
ssS'build'
p737
(dp738
S'core'
p739
S'arduino'
p740
sS'f_cpu'
p741
S'8000000L'
p742
sS'vid'
p743
S'0x1B4F'
p744
sS'pid'
p745
S'0x9208'
p746
sS'variant'
p747
S'leonardo'
p748
sS'mcu'
p749
S'atmega32u4'
p750
ssS'name'
p751
S'LilyPad Arduino USB'
p752
saa(lp753
S'lilypad328'
p754
a(dp755
S'bootloader'
p756
(dp757
S'extended_fuses'
p758
S'0xfd'
p759
sS'high_fuses'
p760
S'0xDA'
p761
sS'low_fuses'
p762
S'0xFF'
p763
sS'lock_bits'
p764
S'0xcf'
p765
sS'file'
p766
S'ATmegaBOOT_168_atmega328_pro_8MHz.hex'
p767
sS'path'
p768
S'atmega'
p769
sS'unlock_bits'
p770
S'0xff'
p771
ssS'upload'
p772
(dp773
S'protocol'
p774
S'arduino'
p775
sS'maximum_size'
p776
S'30720'
p777
sS'speed'
p778
S'57600'
p779
ssS'build'
p780
(dp781
S'core'
p782
S'arduino'
p783
sS'mcu'
p784
S'atmega328p'
p785
sS'f_cpu'
p786
S'8000000L'
p787
sS'variant'
p788
S'standard'
p789
ssS'name'
p790
S'LilyPad Arduino w/ ATmega328'
p791
saa(lp792
S'lilypad'
p793
a(dp794
S'bootloader'
p795
(dp796
S'extended_fuses'
p797
S'0xf8'
p798
sS'high_fuses'
p799
S'0xdd'
p800
sS'low_fuses'
p801
S'0xe2'
p802
sS'lock_bits'
p803
S'0xcf'
p804
sS'file'
p805
S'LilyPadBOOT_168.hex'
p806
sS'path'
p807
S'lilypad'
p808
sS'unlock_bits'
p809
S'0xff'
p810
ssS'upload'
p811
(dp812
S'protocol'
p813
S'arduino'
p814
sS'maximum_size'
p815
S'14336'
p816
sS'speed'
p817
S'19200'
p818
ssS'build'
p819
(dp820
S'core'
p821
S'arduino'
p822
sS'mcu'
p823
S'atmega168'
p824
sS'f_cpu'
p825
S'8000000L'
p826
sS'variant'
p827
S'standard'
p828
ssS'name'
p829
S'LilyPad Arduino w/ ATmega168'
p830
saa(lp831
S'pro5v328'
p832
a(dp833
S'bootloader'
p834
(dp835
S'extended_fuses'
p836
S'0xfd'
p837
sS'high_fuses'
p838
S'0xDA'
p839
sS'low_fuses'
p840
S'0xFF'
p841
sS'lock_bits'
p842
S'0xcf'
p843
sS'file'
p844
S'ATmegaBOOT_168_atmega328.hex'
p845
sS'path'
p846
S'atmega'
p847
sS'unlock_bits'
p848
S'0xff'
p849
ssS'upload'
p850
(dp851
S'protocol'
p852
S'arduino'
p853
sS'maximum_size'
p854
S'30720'
p855
sS'speed'
p856
S'57600'
p857
ssS'build'
p858
(dp859
S'core'
p860
S'arduino'
p861
sS'mcu'
p862
S'atmega328p'
p863
sS'f_cpu'
p864
S'16000000L'
p865
sS'variant'
p866
S'standard'
p867
ssS'name'
p868
S'Arduino Pro or Pro Mini (5V, 16 MHz) w/ ATmega328'
p869
saa(lp870
S'pro5v'
p871
a(dp872
S'bootloader'
p873
(dp874
S'extended_fuses'
p875
S'0xf8'
p876
sS'high_fuses'
p877
S'0xdd'
p878
sS'low_fuses'
p879
S'0xff'
p880
sS'lock_bits'
p881
S'0xcf'
p882
sS'file'
p883
S'ATmegaBOOT_168_diecimila.hex'
p884
sS'path'
p885
S'atmega'
p886
sS'unlock_bits'
p887
S'0xff'
p888
ssS'upload'
p889
(dp890
S'protocol'
p891
S'arduino'
p892
sS'maximum_size'
p893
S'14336'
p894
sS'speed'
p895
S'19200'
p896
ssS'build'
p897
(dp898
S'core'
p899
S'arduino'
p900
sS'mcu'
p901
S'atmega168'
p902
sS'f_cpu'
p903
S'16000000L'
p904
sS'variant'
p905
S'standard'
p906
ssS'name'
p907
S'Arduino Pro or Pro Mini (5V, 16 MHz) w/ ATmega168'
p908
saa(lp909
S'pro328'
p910
a(dp911
S'bootloader'
p912
(dp913
S'extended_fuses'
p914
S'0xfd'
p915
sS'high_fuses'
p916
S'0xDA'
p917
sS'low_fuses'
p918
S'0xFF'
p919
sS'lock_bits'
p920
S'0xcf'
p921
sS'file'
p922
S'ATmegaBOOT_168_atmega328_pro_8MHz.hex'
p923
sS'path'
p924
S'atmega'
p925
sS'unlock_bits'
p926
S'0xff'
p927
ssS'upload'
p928
(dp929
S'protocol'
p930
S'arduino'
p931
sS'maximum_size'
p932
S'30720'
p933
sS'speed'
p934
S'57600'
p935
ssS'build'
p936
(dp937
S'core'
p938
S'arduino'
p939
sS'mcu'
p940
S'atmega328p'
p941
sS'f_cpu'
p942
S'8000000L'
p943
sS'variant'
p944
S'standard'
p945
ssS'name'
p946
S'Arduino Pro or Pro Mini (3.3V, 8 MHz) w/ ATmega328'
p947
saa(lp948
S'pro'
p949
a(dp950
S'bootloader'
p951
(dp952
S'extended_fuses'
p953
S'0xf8'
p954
sS'high_fuses'
p955
S'0xdd'
p956
sS'low_fuses'
p957
S'0xc6'
p958
sS'lock_bits'
p959
S'0xcf'
p960
sS'file'
p961
S'ATmegaBOOT_168_pro_8MHz.hex'
p962
sS'path'
p963
S'atmega'
p964
sS'unlock_bits'
p965
S'0xff'
p966
ssS'upload'
p967
(dp968
S'protocol'
p969
S'arduino'
p970
sS'maximum_size'
p971
S'14336'
p972
sS'speed'
p973
S'19200'
p974
ssS'build'
p975
(dp976
S'core'
p977
S'arduino'
p978
sS'mcu'
p979
S'atmega168'
p980
sS'f_cpu'
p981
S'8000000L'
p982
sS'variant'
p983
S'standard'
p984
ssS'name'
p985
S'Arduino Pro or Pro Mini (3.3V, 8 MHz) w/ ATmega168'
p986
saa(lp987
S'atmega168'
p988
a(dp989
S'bootloader'
p990
(dp991
S'extended_fuses'
p992
S'0xf8'
p993
sS'high_fuses'
p994
S'0xdd'
p995
sS'low_fuses'
p996
S'0xff'
p997
sS'lock_bits'
p998
S'0xcf'
p999
sS'file'
p1000
S'ATmegaBOOT_168_ng.hex'
p1001
sS'path'
p1002
S'atmega'
p1003
sS'unlock_bits'
p1004
S'0xff'
p1005
ssS'upload'
p1006
(dp1007
S'protocol'
p1008
S'arduino'
p1009
sS'maximum_size'
p1010
S'14336'
p1011
sS'speed'
p1012
S'19200'
p1013
ssS'build'
p1014
(dp1015
S'core'
p1016
S'arduino'
p1017
sS'mcu'
p1018
S'atmega168'
p1019
sS'f_cpu'
p1020
S'16000000L'
p1021
sS'variant'
p1022
S'standard'
p1023
ssS'name'
p1024
S'Arduino NG or older w/ ATmega168'
p1025
saa(lp1026
S'atmega8'
p1027
a(dp1028
S'bootloader'
p1029
(dp1030
S'high_fuses'
p1031
S'0xca'
p1032
sS'low_fuses'
p1033
S'0xdf'
p1034
sS'lock_bits'
p1035
S'0xcf'
p1036
sS'file'
p1037
S'ATmegaBOOT-prod-firmware-2009-11-07.hex'
p1038
sS'path'
p1039
S'atmega8'
p1040
sS'unlock_bits'
p1041
S'0xff'
p1042
ssS'upload'
p1043
(dp1044
S'protocol'
p1045
S'arduino'
p1046
sS'maximum_size'
p1047
S'7168'
p1048
sS'speed'
p1049
S'19200'
p1050
ssS'build'
p1051
(dp1052
S'core'
p1053
S'arduino'
p1054
sS'mcu'
p1055
S'atmega8'
p1056
sS'f_cpu'
p1057
S'16000000L'
p1058
sS'variant'
p1059
S'standard'
p1060
ssS'name'
p1061
S'Arduino NG or older w/ ATmega8'
p1062
saa(lp1063
S'robotControl'
p1064
a(dp1065
S'bootloader'
p1066
(dp1067
S'extended_fuses'
p1068
S'0xcb'
p1069
sS'high_fuses'
p1070
S'0xd8'
p1071
sS'low_fuses'
p1072
S'0xff'
p1073
sS'lock_bits'
p1074
S'0xef'
p1075
sS'file'
p1076
S'Caterina-Robot-Control.hex'
p1077
sS'path'
p1078
S'caterina-Arduino_Robot'
p1079
sS'unlock_bits'
p1080
S'0xff'
p1081
ssS'upload'
p1082
(dp1083
S'protocol'
p1084
S'avr109'
p1085
sS'maximum_size'
p1086
S'28672'
p1087
sS'speed'
p1088
S'57600'
p1089
sS'disable_flushing'
p1090
S'true'
p1091
ssS'build'
p1092
(dp1093
S'core'
p1094
S'robot'
p1095
sS'f_cpu'
p1096
S'16000000L'
p1097
sS'vid'
p1098
S'0x2341'
p1099
sS'pid'
p1100
S'0x8038'
p1101
sS'variant'
p1102
S'robot_control'
p1103
sS'mcu'
p1104
S'atmega32u4'
p1105
ssS'name'
p1106
S'Arduino Robot Control'
p1107
saa(lp1108
S'robotMotor'
p1109
a(dp1110
S'bootloader'
p1111
(dp1112
S'extended_fuses'
p1113
S'0xcb'
p1114
sS'high_fuses'
p1115
S'0xd8'
p1116
sS'low_fuses'
p1117
S'0xff'
p1118
sS'lock_bits'
p1119
S'0xef'
p1120
sS'file'
p1121
S'Caterina-Robot-Motor.hex'
p1122
sS'path'
p1123
S'caterina-Arduino_Robot'
p1124
sS'unlock_bits'
p1125
S'0xff'
p1126
ssS'upload'
p1127
(dp1128
S'protocol'
p1129
S'avr109'
p1130
sS'maximum_size'
p1131
S'28672'
p1132
sS'speed'
p1133
S'57600'
p1134
sS'disable_flushing'
p1135
S'true'
p1136
ssS'build'
p1137
(dp1138
S'core'
p1139
S'robot'
p1140
sS'f_cpu'
p1141
S'16000000L'
p1142
sS'vid'
p1143
S'0x2341'
p1144
sS'pid'
p1145
S'0x8039'
p1146
sS'variant'
p1147
S'robot_motor'
p1148
sS'mcu'
p1149
S'atmega32u4'
p1150
ssS'name'
p1151
S'Arduino Robot Motor'
p1152
saatp1153
Rp1154
(dp1155
S'default'
p1156
S'uno'
p1157
sbtp1158
a(S'used_libs'
p1159
(lp1160
S'/usr/share/arduino/hardware/arduino/cores/arduino'
p1161
atp1162
a(S'make'
p1163
S'/usr/share/arduino/hardware/tools/avr/bin/make'
p1164
tp1165
a(S'build_dir'
p1166
S'.build/uno'
p1167
tp1168
a(S'cc'
p1169
S'/usr/share/arduino/hardware/tools/avr/bin/avr-gcc'
p1170
tp1171
a(S'cflags'
p1172
g2
(g3
g4
(lp1173
tp1174
Rp1175
tp1176
a(S'cxxflags'
p1177
g2
(g3
g4
(lp1178
S'-fno-exceptions'
p1179
atp1180
Rp1181
tp1182
a(S'arduino_variants_dir'
p1183
S'/usr/share/arduino/hardware/arduino/variants'
p1184
tp1185
a(S'serial'
p1186
S'/usr/bin/picocom'
p1187
tp1188
a(S'stty'
p1189
S'/bin/stty'
p1190
tp1191
a(S'version.txt'
p1192
S'/usr/share/arduino/lib/version.txt'
p1193
tp1194
a(S'arduino_core_dir'
p1195
g1161
tp1196
a(S'boards.txt'
p1197
S'/usr/share/arduino/hardware/arduino/boards.txt'
p1198
tp1199
a(S'avrdude.conf'
p1200
S'/usr/share/arduino/hardware/tools/avrdude.conf'
p1201
tp1202
a(S'deps'
p1203
g2
(g3
g4
(lp1204
S'.build/leonardo/src/dependencies.d'
p1205
aS'.build/leonardo/arduino/dependencies.d'
p1206
atp1207
Rp1208
tp1209
a.